target datalayout = "e-m:e-p270:32:32-p271:32:32-p272:64:64-i64:64-i128:128-f80:128-n8:16:32:64-S128"
target triple = "x86_64-pc-linux-gnu"

@.str = private unnamed_addr constant [3 x i8] c"%d\00", align 1
@.str.1 = private unnamed_addr constant [3 x i8] c"%c\00", align 1
@Kit_TruthDumpToFile.pFileName = internal global [100 x i8] zeroinitializer, align 16
@.str.5 = private unnamed_addr constant [9 x i8] c"tt\\s%04d\00", align 1
@.str.6 = private unnamed_addr constant [2 x i8] c"w\00", align 1
@.str.7 = private unnamed_addr constant [4 x i8] c"rt \00", align 1
@.str.8 = private unnamed_addr constant [16 x i8] c"; bdd; sop; ps\0A\00", align 1

; Function Attrs: nounwind uwtable
define void @Kit_PrintHexadecimal(ptr noundef %0, ptr noundef %1, i32 noundef %2) #0 {
  %4 = alloca ptr, align 8
  %5 = alloca ptr, align 8
  %6 = alloca i32, align 4
  %7 = alloca i32, align 4
  %8 = alloca i32, align 4
  %9 = alloca i32, align 4
  store ptr %0, ptr %4, align 8, !tbaa !178
  store ptr %1, ptr %5, align 8, !tbaa !3
  store i32 %2, ptr %6, align 4, !tbaa !8
  call void @llvm.lifetime.start.p0(i64 4, ptr %7) #8
  call void @llvm.lifetime.start.p0(i64 4, ptr %8) #8
  call void @llvm.lifetime.start.p0(i64 4, ptr %9) #8
  %10 = load i32, ptr %6, align 4, !tbaa !8
  %11 = shl i32 1, %10
  %12 = sdiv i32 %11, 4
  store i32 %12, ptr %7, align 4, !tbaa !8
  %13 = load i32, ptr %7, align 4, !tbaa !8
  %14 = sub nsw i32 %13, 1
  store i32 %14, ptr %9, align 4, !tbaa !8
  br label %15

15:                                               ; preds = %43, %3
  %16 = load i32, ptr %9, align 4, !tbaa !8
  %17 = icmp sge i32 %16, 0
  br i1 %17, label %18, label %46

18:                                               ; preds = %15
  %19 = load ptr, ptr %5, align 8, !tbaa !3
  %20 = load i32, ptr %9, align 4, !tbaa !8
  %21 = sdiv i32 %20, 8
  %22 = sext i32 %21 to i64
  %23 = getelementptr inbounds i32, ptr %19, i64 %22
  %24 = load i32, ptr %23, align 4, !tbaa !8
  %25 = load i32, ptr %9, align 4, !tbaa !8
  %26 = srem i32 %25, 8
  %27 = mul nsw i32 %26, 4
  %28 = lshr i32 %24, %27
  %29 = and i32 %28, 15
  store i32 %29, ptr %8, align 4, !tbaa !8
  %30 = load i32, ptr %8, align 4, !tbaa !8
  %31 = icmp slt i32 %30, 10
  br i1 %31, label %32, label %36

32:                                               ; preds = %18
  %33 = load ptr, ptr %4, align 8, !tbaa !178
  %34 = load i32, ptr %8, align 4, !tbaa !8
  %35 = call i32 (ptr, ptr, ...) @fprintf(ptr noundef %33, ptr noundef @.str, i32 noundef %34) #8
  br label %42

36:                                               ; preds = %18
  %37 = load ptr, ptr %4, align 8, !tbaa !178
  %38 = load i32, ptr %8, align 4, !tbaa !8
  %39 = add nsw i32 97, %38
  %40 = sub nsw i32 %39, 10
  %41 = call i32 (ptr, ptr, ...) @fprintf(ptr noundef %37, ptr noundef @.str.1, i32 noundef %40) #8
  br label %42

42:                                               ; preds = %36, %32
  br label %43

43:                                               ; preds = %42
  %44 = load i32, ptr %9, align 4, !tbaa !8
  %45 = add nsw i32 %44, -1
  store i32 %45, ptr %9, align 4, !tbaa !8
  br label %15, !llvm.loop !180

46:                                               ; preds = %15
  call void @llvm.lifetime.end.p0(i64 4, ptr %9) #8
  call void @llvm.lifetime.end.p0(i64 4, ptr %8) #8
  call void @llvm.lifetime.end.p0(i64 4, ptr %7) #8
  ret void
}

; Function Attrs: nounwind uwtable
define ptr @Kit_TruthDumpToFile(ptr noundef %0, i32 noundef %1, i32 noundef %2) #0 {
  %4 = alloca ptr, align 8
  %5 = alloca i32, align 4
  %6 = alloca i32, align 4
  %7 = alloca ptr, align 8
  store ptr %0, ptr %4, align 8, !tbaa !3
  store i32 %1, ptr %5, align 4, !tbaa !8
  store i32 %2, ptr %6, align 4, !tbaa !8
  call void @llvm.lifetime.start.p0(i64 8, ptr %7) #8
  %8 = load i32, ptr %6, align 4, !tbaa !8
  %9 = call i32 (ptr, ptr, ...) @sprintf(ptr noundef @Kit_TruthDumpToFile.pFileName, ptr noundef @.str.5, i32 noundef %8) #8
  %10 = call noalias ptr @fopen(ptr noundef @Kit_TruthDumpToFile.pFileName, ptr noundef @.str.6)
  store ptr %10, ptr %7, align 8, !tbaa !178
  %11 = load ptr, ptr %7, align 8, !tbaa !178
  %12 = call i32 (ptr, ptr, ...) @fprintf(ptr noundef %11, ptr noundef @.str.7) #8
  %13 = load ptr, ptr %7, align 8, !tbaa !178
  %14 = load ptr, ptr %4, align 8, !tbaa !3
  %15 = load i32, ptr %5, align 4, !tbaa !8
  call void @Kit_PrintHexadecimal(ptr noundef %13, ptr noundef %14, i32 noundef %15)
  %16 = load ptr, ptr %7, align 8, !tbaa !178
  %17 = call i32 (ptr, ptr, ...) @fprintf(ptr noundef %16, ptr noundef @.str.8) #8
  %18 = load ptr, ptr %7, align 8, !tbaa !178
  %19 = call i32 @fclose(ptr noundef %18)
  call void @llvm.lifetime.end.p0(i64 8, ptr %7) #8
  ret ptr @Kit_TruthDumpToFile.pFileName
}