; Function Attrs: nofree nounwind uwtable
define noundef nonnull ptr @Kit_TruthDumpToFile(ptr noundef readonly captures(none) %0, i32 noundef %1, i32 noundef %2) local_unnamed_addr #5 {
  %4 = tail call i32 (ptr, ptr, ...) @sprintf(ptr noundef nonnull dereferenceable(1) @Kit_TruthDumpToFile.pFileName, ptr noundef nonnull dereferenceable(1) @.str.5, i32 noundef %2) #13
  %5 = tail call noalias ptr @fopen(ptr noundef nonnull @Kit_TruthDumpToFile.pFileName, ptr noundef nonnull @.str.6)
  %6 = tail call i64 @fwrite(ptr nonnull @.str.7, i64 3, i64 1, ptr %5)
  %7 = shl nuw i32 1, %1
  %8 = icmp sgt i32 %7, 3
  br i1 %8, label %.lr.ph.preheader.i, label %Kit_PrintHexadecimal.exit

.lr.ph.preheader.i:                               ; preds = %3
  %9 = lshr i32 %7, 2
  br label %.lr.ph.i

.lr.ph.i:                                         ; preds = %23, %.lr.ph.preheader.i
  %.013.in.i = phi i32 [ %.013.i, %23 ], [ %9, %.lr.ph.preheader.i ]
  %.013.i = add nsw i32 %.013.in.i, -1
  %10 = lshr i32 %.013.i, 3
  %11 = zext nneg i32 %10 to i64
  %12 = getelementptr inbounds nuw i32, ptr %0, i64 %11
  %13 = load i32, ptr %12, align 4, !tbaa !3
  %14 = shl i32 %.013.i, 2
  %15 = and i32 %14, 28
  %16 = lshr i32 %13, %15
  %17 = and i32 %16, 15
  %18 = icmp samesign ult i32 %17, 10
  br i1 %18, label %19, label %21

19:                                               ; preds = %.lr.ph.i
  %20 = tail call i32 (ptr, ptr, ...) @fprintf(ptr noundef %5, ptr noundef nonnull @.str, i32 noundef %17) #13
  br label %23

21:                                               ; preds = %.lr.ph.i
  %22 = add nuw nsw i32 %17, 87
  %fputc.i = tail call i32 @fputc(i32 %22, ptr %5)
  br label %23

23:                                               ; preds = %21, %19
  %24 = icmp samesign ugt i32 %.013.in.i, 1
  br i1 %24, label %.lr.ph.i, label %Kit_PrintHexadecimal.exit, !llvm.loop !170

Kit_PrintHexadecimal.exit:                        ; preds = %23, %3
  %25 = tail call i64 @fwrite(ptr nonnull @.str.8, i64 15, i64 1, ptr %5)
  %26 = tail call i32 @fclose(ptr noundef %5)
  ret ptr @Kit_TruthDumpToFile.pFileName
}